target datalayout = "e-m:e-p270:32:32-p271:32:32-p272:64:64-i64:64-i128:128-f80:128-n8:16:32:64-S128"
target triple = "x86_64-pc-linux-gnu"

%struct.lua_State = type { %struct.GCRef, i8, i8, i8, i8, %struct.MRef, %struct.GCRef, ptr, ptr, %struct.MRef, %struct.MRef, %struct.GCRef, %struct.GCRef, ptr, i32 }
%struct.MRef = type { i64 }
%struct.GCRef = type { i64 }
%union.TValue = type { i64 }

@.str.2 = private unnamed_addr constant [24 x i8] c"store to dead GC object\00", align 1

; Function Attrs: alwaysinline nounwind uwtable
define internal void @checklivetv(ptr noundef %0, ptr noundef %1, ptr noundef %2) #3 {
  %4 = alloca ptr, align 8
  %5 = alloca ptr, align 8
  %6 = alloca ptr, align 8
  store ptr %0, ptr %4, align 8, !tbaa !4
  store ptr %1, ptr %5, align 8, !tbaa !25
  store ptr %2, ptr %6, align 8, !tbaa !31
  ret void
}

; Function Attrs: alwaysinline nounwind uwtable
define internal void @setgcVraw(ptr noundef %0, ptr noundef %1, i32 noundef %2) #3 {
  %4 = alloca ptr, align 8
  %5 = alloca ptr, align 8
  %6 = alloca i32, align 4
  store ptr %0, ptr %4, align 8, !tbaa !25
  store ptr %1, ptr %5, align 8, !tbaa !64
  store i32 %2, ptr %6, align 4, !tbaa !30
  %7 = load ptr, ptr %5, align 8, !tbaa !64
  %8 = ptrtoint ptr %7 to i64
  %9 = load i32, ptr %6, align 4, !tbaa !30
  %10 = zext i32 %9 to i64
  %11 = shl i64 %10, 47
  %12 = or i64 %8, %11
  %13 = load ptr, ptr %4, align 8, !tbaa !25
  %14 = getelementptr inbounds nuw %struct.GCRef, ptr %13, i32 0, i32 0
  store i64 %12, ptr %14, align 8, !tbaa !22
  ret void
}

; Function Attrs: alwaysinline nounwind uwtable
define internal void @setgcV(ptr noundef %0, ptr noundef %1, ptr noundef %2, i32 noundef %3) #3 {
  %5 = alloca ptr, align 8
  %6 = alloca ptr, align 8
  %7 = alloca ptr, align 8
  %8 = alloca i32, align 4
  store ptr %0, ptr %5, align 8, !tbaa !4
  store ptr %1, ptr %6, align 8, !tbaa !25
  store ptr %2, ptr %7, align 8, !tbaa !64
  store i32 %3, ptr %8, align 4, !tbaa !30
  %9 = load ptr, ptr %6, align 8, !tbaa !25
  %10 = load ptr, ptr %7, align 8, !tbaa !64
  %11 = load i32, ptr %8, align 4, !tbaa !30
  call void @setgcVraw(ptr noundef %9, ptr noundef %10, i32 noundef %11)
  %12 = load ptr, ptr %5, align 8, !tbaa !4
  %13 = load ptr, ptr %6, align 8, !tbaa !25
  call void @checklivetv(ptr noundef %12, ptr noundef %13, ptr noundef @.str.2)
  ret void
}

; Function Attrs: alwaysinline nounwind uwtable
define internal void @setstrV(ptr noundef %0, ptr noundef %1, ptr noundef %2) #3 {
  %4 = alloca ptr, align 8
  %5 = alloca ptr, align 8
  %6 = alloca ptr, align 8
  store ptr %0, ptr %4, align 8, !tbaa !4
  store ptr %1, ptr %5, align 8, !tbaa !25
  store ptr %2, ptr %6, align 8, !tbaa !26
  %7 = load ptr, ptr %4, align 8, !tbaa !4
  %8 = load ptr, ptr %5, align 8, !tbaa !25
  %9 = load ptr, ptr %6, align 8, !tbaa !26
  call void @setgcV(ptr noundef %7, ptr noundef %8, ptr noundef %9, i32 noundef -5)
  ret void
}

; Function Attrs: nounwind uwtable
define internal i32 @lj_ffh_string_char(ptr noundef %0) #0 {
  %2 = alloca ptr, align 8
  %3 = alloca i32, align 4
  %4 = alloca i32, align 4
  %5 = alloca ptr, align 8
  %6 = alloca i32, align 4
  store ptr %0, ptr %2, align 8, !tbaa !4
  call void @llvm.lifetime.start.p0(i64 4, ptr %3) #7
  call void @llvm.lifetime.start.p0(i64 4, ptr %4) #7
  %7 = load ptr, ptr %2, align 8, !tbaa !4
  %8 = getelementptr inbounds nuw %struct.lua_State, ptr %7, i32 0, i32 8
  %9 = load ptr, ptr %8, align 8, !tbaa !21
  %10 = load ptr, ptr %2, align 8, !tbaa !4
  %11 = getelementptr inbounds nuw %struct.lua_State, ptr %10, i32 0, i32 7
  %12 = load ptr, ptr %11, align 8, !tbaa !33
  %13 = ptrtoint ptr %9 to i64
  %14 = ptrtoint ptr %12 to i64
  %15 = sub i64 %13, %14
  %16 = sdiv exact i64 %15, 8
  %17 = trunc i64 %16 to i32
  store i32 %17, ptr %4, align 4, !tbaa !30
  call void @llvm.lifetime.start.p0(i64 8, ptr %5) #7
  %18 = load ptr, ptr %2, align 8, !tbaa !4
  %19 = load i32, ptr %4, align 4, !tbaa !30
  %20 = call ptr @lj_buf_tmp(ptr noundef %18, i32 noundef %19)
  store ptr %20, ptr %5, align 8, !tbaa !31
  store i32 1, ptr %3, align 4, !tbaa !30
  br label %21

21:                                               ; preds = %45, %1
  %22 = load i32, ptr %3, align 4, !tbaa !30
  %23 = load i32, ptr %4, align 4, !tbaa !30
  %24 = icmp sle i32 %22, %23
  br i1 %24, label %25, label %48

25:                                               ; preds = %21
  call void @llvm.lifetime.start.p0(i64 4, ptr %6) #7
  %26 = load ptr, ptr %2, align 8, !tbaa !4
  %27 = load i32, ptr %3, align 4, !tbaa !30
  %28 = call i32 @lj_lib_checkint(ptr noundef %26, i32 noundef %27)
  store i32 %28, ptr %6, align 4, !tbaa !30
  %29 = load i32, ptr %6, align 4, !tbaa !30
  %30 = load i32, ptr %6, align 4, !tbaa !30
  %31 = trunc i32 %30 to i8
  %32 = zext i8 %31 to i32
  %33 = icmp eq i32 %29, %32
  br i1 %33, label %37, label %34

34:                                               ; preds = %25
  %35 = load ptr, ptr %2, align 8, !tbaa !4
  %36 = load i32, ptr %3, align 4, !tbaa !30
  call void @lj_err_arg(ptr noundef %35, i32 noundef %36, i32 noundef 537) #8
  unreachable

37:                                               ; preds = %25
  %38 = load i32, ptr %6, align 4, !tbaa !30
  %39 = trunc i32 %38 to i8
  %40 = load ptr, ptr %5, align 8, !tbaa !31
  %41 = load i32, ptr %3, align 4, !tbaa !30
  %42 = sub nsw i32 %41, 1
  %43 = sext i32 %42 to i64
  %44 = getelementptr inbounds i8, ptr %40, i64 %43
  store i8 %39, ptr %44, align 1, !tbaa !22
  call void @llvm.lifetime.end.p0(i64 4, ptr %6) #7
  br label %45

45:                                               ; preds = %37
  %46 = load i32, ptr %3, align 4, !tbaa !30
  %47 = add nsw i32 %46, 1
  store i32 %47, ptr %3, align 4, !tbaa !30
  br label %21, !llvm.loop !36

48:                                               ; preds = %21
  %49 = load ptr, ptr %2, align 8, !tbaa !4
  %50 = load ptr, ptr %2, align 8, !tbaa !4
  %51 = getelementptr inbounds nuw %struct.lua_State, ptr %50, i32 0, i32 7
  %52 = load ptr, ptr %51, align 8, !tbaa !33
  %53 = getelementptr inbounds %union.TValue, ptr %52, i64 -1
  %54 = getelementptr inbounds %union.TValue, ptr %53, i64 -1
  %55 = load ptr, ptr %2, align 8, !tbaa !4
  %56 = load ptr, ptr %5, align 8, !tbaa !31
  %57 = load i32, ptr %4, align 4, !tbaa !30
  %58 = sext i32 %57 to i64
  %59 = call ptr @lj_str_new(ptr noundef %55, ptr noundef %56, i64 noundef %58)
  call void @setstrV(ptr noundef %49, ptr noundef %54, ptr noundef %59)
  call void @llvm.lifetime.end.p0(i64 8, ptr %5) #7
  call void @llvm.lifetime.end.p0(i64 4, ptr %4) #7
  call void @llvm.lifetime.end.p0(i64 4, ptr %3) #7
  ret i32 2
}