; Function Attrs: nounwind uwtable
define internal noundef i32 @lj_ffh_string_char(ptr noundef %0) #0 {
  %2 = getelementptr inbounds nuw i8, ptr %0, i64 40
  %3 = load ptr, ptr %2, align 8, !tbaa !15
  %4 = getelementptr inbounds nuw i8, ptr %0, i64 32
  %5 = load ptr, ptr %4, align 8, !tbaa !22
  %6 = ptrtoint ptr %3 to i64
  %7 = ptrtoint ptr %5 to i64
  %8 = sub i64 %6, %7
  %9 = lshr exact i64 %8, 3
  %10 = trunc i64 %9 to i32
  %11 = tail call ptr @lj_buf_tmp(ptr noundef %0, i32 noundef %10) #7
  %invariant.gep = getelementptr i8, ptr %11, i64 -1
  %.not22 = icmp slt i32 %10, 1
  br i1 %.not22, label %._crit_edge, label %.lr.ph.preheader

.lr.ph.preheader:                                 ; preds = %1
  %12 = add nuw nsw i64 %9, 1
  %wide.trip.count = and i64 %12, 4294967295
  br label %.lr.ph

.lr.ph:                                           ; preds = %.lr.ph.preheader, %17
  %indvars.iv = phi i64 [ 1, %.lr.ph.preheader ], [ %indvars.iv.next, %17 ]
  %13 = trunc nuw nsw i64 %indvars.iv to i32
  %14 = tail call i32 @lj_lib_checkint(ptr noundef %0, i32 noundef %13) #7
  %15 = icmp ult i32 %14, 256
  br i1 %15, label %17, label %16

16:                                               ; preds = %.lr.ph
  tail call void @lj_err_arg(ptr noundef %0, i32 noundef %13, i32 noundef 537) #8
  unreachable

17:                                               ; preds = %.lr.ph
  %18 = trunc nuw i32 %14 to i8
  %gep = getelementptr i8, ptr %invariant.gep, i64 %indvars.iv
  store i8 %18, ptr %gep, align 1, !tbaa !16
  %indvars.iv.next = add nuw nsw i64 %indvars.iv, 1
  %exitcond.not = icmp eq i64 %indvars.iv.next, %wide.trip.count
  br i1 %exitcond.not, label %._crit_edge, label %.lr.ph, !llvm.loop !25

._crit_edge:                                      ; preds = %17, %1
  %19 = load ptr, ptr %4, align 8, !tbaa !22
  %20 = getelementptr inbounds i8, ptr %19, i64 -16
  %sext = shl i64 %8, 29
  %21 = ashr i64 %sext, 32
  %22 = tail call ptr @lj_str_new(ptr noundef %0, ptr noundef %11, i64 noundef %21) #7
  %23 = ptrtoint ptr %22 to i64
  %24 = or i64 %23, -703687441776640
  store i64 %24, ptr %20, align 8, !tbaa !16
  ret i32 2
}